target datalayout = "e-m:e-p270:32:32-p271:32:32-p272:64:64-i64:64-i128:128-f80:128-n8:16:32:64-S128"
target triple = "x86_64-pc-linux-gnu"

%struct.mbedtls_ssl_ticket_context = type { [2 x %struct.mbedtls_ssl_ticket_key], i8, i32, ptr, ptr }
%struct.mbedtls_ssl_ticket_key = type { [4 x i8], i64, i32, %struct.mbedtls_cipher_context_t }
%struct.mbedtls_cipher_context_t = type { ptr, i32, i32, ptr, ptr, [16 x i8], i64, [16 x i8], i64, ptr, ptr }
%struct.mbedtls_cipher_info_t = type { ptr, i32 }

; Function Attrs: inlinehint nounwind uwtable
define internal i32 @mbedtls_cipher_get_key_bitlen(ptr noundef %0) #3 {
  %2 = alloca i32, align 4
  %3 = alloca ptr, align 8
  store ptr %0, ptr %3, align 8, !tbaa !26
  %4 = load ptr, ptr %3, align 8, !tbaa !26
  %5 = getelementptr inbounds nuw %struct.mbedtls_cipher_context_t, ptr %4, i32 0, i32 0
  %6 = load ptr, ptr %5, align 8, !tbaa !28
  %7 = icmp eq ptr %6, null
  br i1 %7, label %8, label %9

8:                                                ; preds = %1
  store i32 0, ptr %2, align 4
  br label %18

9:                                                ; preds = %1
  %10 = load ptr, ptr %3, align 8, !tbaa !26
  %11 = getelementptr inbounds nuw %struct.mbedtls_cipher_context_t, ptr %10, i32 0, i32 0
  %12 = load ptr, ptr %11, align 8, !tbaa !28
  %13 = getelementptr inbounds nuw %struct.mbedtls_cipher_info_t, ptr %12, i32 0, i32 1
  %14 = load i32, ptr %13, align 8
  %15 = lshr i32 %14, 8
  %16 = and i32 %15, 15
  %17 = shl i32 %16, 6
  store i32 %17, ptr %2, align 4
  br label %18

18:                                               ; preds = %9, %8
  %19 = load i32, ptr %2, align 4
  ret i32 %19
}

; Function Attrs: nounwind uwtable
define hidden i32 @mbedtls_ssl_ticket_rotate(ptr noundef %0, ptr noundef %1, i64 noundef %2, ptr noundef %3, i64 noundef %4, i32 noundef %5) #0 {
  %7 = alloca i32, align 4
  %8 = alloca ptr, align 8
  %9 = alloca ptr, align 8
  %10 = alloca i64, align 8
  %11 = alloca ptr, align 8
  %12 = alloca i64, align 8
  %13 = alloca i32, align 4
  %14 = alloca i8, align 1
  %15 = alloca ptr, align 8
  %16 = alloca i32, align 4
  %17 = alloca i32, align 4
  %18 = alloca i32, align 4
  store ptr %0, ptr %8, align 8, !tbaa !3
  store ptr %1, ptr %9, align 8, !tbaa !8
  store i64 %2, ptr %10, align 8, !tbaa !10
  store ptr %3, ptr %11, align 8, !tbaa !8
  store i64 %4, ptr %12, align 8, !tbaa !10
  store i32 %5, ptr %13, align 4, !tbaa !12
  call void @llvm.lifetime.start.p0(i64 1, ptr %14) #10
  %19 = load ptr, ptr %8, align 8, !tbaa !3
  %20 = getelementptr inbounds nuw %struct.mbedtls_ssl_ticket_context, ptr %19, i32 0, i32 1
  %21 = load i8, ptr %20, align 8, !tbaa !14
  %22 = zext i8 %21 to i32
  %23 = sub nsw i32 1, %22
  %24 = trunc i32 %23 to i8
  store i8 %24, ptr %14, align 1, !tbaa !16
  call void @llvm.lifetime.start.p0(i64 8, ptr %15) #10
  %25 = load ptr, ptr %8, align 8, !tbaa !3
  %26 = getelementptr inbounds nuw %struct.mbedtls_ssl_ticket_context, ptr %25, i32 0, i32 0
  %27 = getelementptr inbounds [2 x %struct.mbedtls_ssl_ticket_key], ptr %26, i64 0, i64 0
  %28 = load i8, ptr %14, align 1, !tbaa !16
  %29 = zext i8 %28 to i32
  %30 = sext i32 %29 to i64
  %31 = getelementptr inbounds %struct.mbedtls_ssl_ticket_key, ptr %27, i64 %30
  store ptr %31, ptr %15, align 8, !tbaa !17
  call void @llvm.lifetime.start.p0(i64 4, ptr %16) #10
  store i32 -110, ptr %16, align 4, !tbaa !12
  call void @llvm.lifetime.start.p0(i64 4, ptr %17) #10
  %32 = load ptr, ptr %15, align 8, !tbaa !17
  %33 = getelementptr inbounds nuw %struct.mbedtls_ssl_ticket_key, ptr %32, i32 0, i32 3
  %34 = call i32 @mbedtls_cipher_get_key_bitlen(ptr noundef %33)
  store i32 %34, ptr %17, align 4, !tbaa !12
  %35 = load i64, ptr %10, align 8, !tbaa !10
  %36 = icmp ult i64 %35, 4
  br i1 %36, label %43, label %37

37:                                               ; preds = %6
  %38 = load i64, ptr %12, align 8, !tbaa !10
  %39 = mul i64 %38, 8
  %40 = load i32, ptr %17, align 4, !tbaa !12
  %41 = sext i32 %40 to i64
  %42 = icmp ult i64 %39, %41
  br i1 %42, label %43, label %44

43:                                               ; preds = %37, %6
  store i32 -24832, ptr %7, align 4
  store i32 1, ptr %18, align 4
  br label %71

44:                                               ; preds = %37
  %45 = load ptr, ptr %15, align 8, !tbaa !17
  %46 = getelementptr inbounds nuw %struct.mbedtls_ssl_ticket_key, ptr %45, i32 0, i32 3
  %47 = load ptr, ptr %11, align 8, !tbaa !8
  %48 = load i32, ptr %17, align 4, !tbaa !12
  %49 = call i32 @mbedtls_cipher_setkey(ptr noundef %46, ptr noundef %47, i32 noundef %48, i32 noundef 1)
  store i32 %49, ptr %16, align 4, !tbaa !12
  %50 = load i32, ptr %16, align 4, !tbaa !12
  %51 = icmp ne i32 %50, 0
  br i1 %51, label %52, label %54

52:                                               ; preds = %44
  %53 = load i32, ptr %16, align 4, !tbaa !12
  store i32 %53, ptr %7, align 4
  store i32 1, ptr %18, align 4
  br label %71

54:                                               ; preds = %44
  %55 = load i8, ptr %14, align 1, !tbaa !16
  %56 = load ptr, ptr %8, align 8, !tbaa !3
  %57 = getelementptr inbounds nuw %struct.mbedtls_ssl_ticket_context, ptr %56, i32 0, i32 1
  store i8 %55, ptr %57, align 8, !tbaa !14
  %58 = load i32, ptr %13, align 4, !tbaa !12
  %59 = load ptr, ptr %8, align 8, !tbaa !3
  %60 = getelementptr inbounds nuw %struct.mbedtls_ssl_ticket_context, ptr %59, i32 0, i32 2
  store i32 %58, ptr %60, align 4, !tbaa !19
  %61 = load ptr, ptr %15, align 8, !tbaa !17
  %62 = getelementptr inbounds nuw %struct.mbedtls_ssl_ticket_key, ptr %61, i32 0, i32 0
  %63 = getelementptr inbounds [4 x i8], ptr %62, i64 0, i64 0
  %64 = load ptr, ptr %9, align 8, !tbaa !8
  call void @llvm.memcpy.p0.p0.i64(ptr align 8 %63, ptr align 1 %64, i64 4, i1 false)
  %65 = call i64 @time(ptr noundef null) #10
  %66 = load ptr, ptr %15, align 8, !tbaa !17
  %67 = getelementptr inbounds nuw %struct.mbedtls_ssl_ticket_key, ptr %66, i32 0, i32 1
  store i64 %65, ptr %67, align 8, !tbaa !20
  %68 = load i32, ptr %13, align 4, !tbaa !12
  %69 = load ptr, ptr %15, align 8, !tbaa !17
  %70 = getelementptr inbounds nuw %struct.mbedtls_ssl_ticket_key, ptr %69, i32 0, i32 2
  store i32 %68, ptr %70, align 8, !tbaa !25
  store i32 0, ptr %7, align 4
  store i32 1, ptr %18, align 4
  br label %71

71:                                               ; preds = %54, %52, %43
  call void @llvm.lifetime.end.p0(i64 4, ptr %17) #10
  call void @llvm.lifetime.end.p0(i64 4, ptr %16) #10
  call void @llvm.lifetime.end.p0(i64 8, ptr %15) #10
  call void @llvm.lifetime.end.p0(i64 1, ptr %14) #10
  %72 = load i32, ptr %7, align 4
  ret i32 %72
}