; Function Attrs: nounwind uwtable
define hidden i32 @mbedtls_ssl_ticket_rotate(ptr noundef %0, ptr noundef readonly captures(none) %1, i64 noundef %2, ptr noundef %3, i64 noundef %4, i32 noundef %5) local_unnamed_addr #2 {
  %7 = getelementptr inbounds nuw i8, ptr %0, i64 240
  %8 = load i8, ptr %7, align 8, !tbaa !3
  %9 = sub i8 1, %8
  %10 = zext i8 %9 to i64
  %11 = getelementptr inbounds nuw %struct.mbedtls_ssl_ticket_key, ptr %0, i64 %10
  %12 = getelementptr inbounds nuw i8, ptr %11, i64 24
  %.val = load ptr, ptr %12, align 8, !tbaa !9
  %13 = icmp eq ptr %.val, null
  br i1 %13, label %mbedtls_cipher_get_key_bitlen.exit, label %14

14:                                               ; preds = %6
  %15 = getelementptr inbounds nuw i8, ptr %.val, i64 8
  %16 = load i32, ptr %15, align 8
  %17 = lshr i32 %16, 2
  %18 = and i32 %17, 960
  br label %mbedtls_cipher_get_key_bitlen.exit

mbedtls_cipher_get_key_bitlen.exit:               ; preds = %6, %14
  %.0.i = phi i32 [ %18, %14 ], [ 0, %6 ]
  %19 = icmp ult i64 %2, 4
  %20 = shl i64 %4, 3
  %21 = zext nneg i32 %.0.i to i64
  %22 = icmp ult i64 %20, %21
  %or.cond = select i1 %19, i1 true, i1 %22
  br i1 %or.cond, label %31, label %23

23:                                               ; preds = %mbedtls_cipher_get_key_bitlen.exit
  %24 = tail call i32 @mbedtls_cipher_setkey(ptr noundef nonnull %12, ptr noundef %3, i32 noundef %.0.i, i32 noundef 1) #8
  %.not = icmp eq i32 %24, 0
  br i1 %.not, label %25, label %31

25:                                               ; preds = %23
  store i8 %9, ptr %7, align 8, !tbaa !3
  %26 = getelementptr inbounds nuw i8, ptr %0, i64 244
  store i32 %5, ptr %26, align 4, !tbaa !14
  %27 = load i32, ptr %1, align 1
  store i32 %27, ptr %11, align 8
  %28 = tail call i64 @time(ptr noundef null) #8
  %29 = getelementptr inbounds nuw i8, ptr %11, i64 8
  store i64 %28, ptr %29, align 8, !tbaa !15
  %30 = getelementptr inbounds nuw i8, ptr %11, i64 16
  store i32 %5, ptr %30, align 8, !tbaa !17
  br label %31

31:                                               ; preds = %23, %mbedtls_cipher_get_key_bitlen.exit, %25
  %.0 = phi i32 [ 0, %25 ], [ -24832, %mbedtls_cipher_get_key_bitlen.exit ], [ %24, %23 ]
  ret i32 %.0
}